target datalayout = "e-m:e-p270:32:32-p271:32:32-p272:64:64-i64:64-i128:128-f80:128-n8:16:32:64-S128"
target triple = "x86_64-pc-linux-gnu"

%struct.FunctionCallInfoBaseData = type { ptr, ptr, ptr, i32, i8, i16, [0 x %struct.NullableDatum] }
%struct.NullableDatum = type { i64, i8 }
%struct.SplitTextOutputData = type { ptr, ptr, ptr }

@CurrentMemoryContext = external global ptr, align 8

; Function Attrs: inlinehint nounwind uwtable
define internal i64 @PointerGetDatum(ptr noundef %0) #0 {
  %2 = alloca ptr, align 8
  store ptr %0, ptr %2, align 8
  %3 = load ptr, ptr %2, align 8
  %4 = ptrtoint ptr %3 to i64
  ret i64 %4
}

; Function Attrs: nounwind uwtable
define dso_local i64 @text_to_array(ptr noundef %0) #1 {
  %2 = alloca i64, align 8
  %3 = alloca ptr, align 8
  %4 = alloca %struct.SplitTextOutputData, align 8
  %5 = alloca i32, align 4
  store ptr %0, ptr %3, align 8
  call void @llvm.lifetime.start.p0(i64 24, ptr %4) #13
  call void @llvm.memset.p0.i64(ptr align 8 %4, i8 0, i64 24, i1 false)
  %6 = load ptr, ptr %3, align 8
  %7 = call zeroext i1 @split_text(ptr noundef %6, ptr noundef %4)
  br i1 %7, label %14, label %8

8:                                                ; preds = %1
  br label %9

9:                                                ; preds = %8
  %10 = load ptr, ptr %3, align 8
  %11 = getelementptr inbounds nuw %struct.FunctionCallInfoBaseData, ptr %10, i32 0, i32 4
  store i8 1, ptr %11, align 4
  store i64 0, ptr %2, align 8
  store i32 1, ptr %5, align 4
  br label %26

12:                                               ; No predecessors!
  br label %13

13:                                               ; preds = %12
  br label %14

14:                                               ; preds = %13, %1
  %15 = getelementptr inbounds nuw %struct.SplitTextOutputData, ptr %4, i32 0, i32 0
  %16 = load ptr, ptr %15, align 8
  %17 = icmp eq ptr %16, null
  br i1 %17, label %18, label %21

18:                                               ; preds = %14
  %19 = call ptr @construct_empty_array(i32 noundef 25)
  %20 = call i64 @PointerGetDatum(ptr noundef %19)
  store i64 %20, ptr %2, align 8
  store i32 1, ptr %5, align 4
  br label %26

21:                                               ; preds = %14
  %22 = getelementptr inbounds nuw %struct.SplitTextOutputData, ptr %4, i32 0, i32 0
  %23 = load ptr, ptr %22, align 8
  %24 = load ptr, ptr @CurrentMemoryContext, align 8
  %25 = call i64 @makeArrayResult(ptr noundef %23, ptr noundef %24)
  store i64 %25, ptr %2, align 8
  store i32 1, ptr %5, align 4
  br label %26

26:                                               ; preds = %21, %18, %9
  call void @llvm.lifetime.end.p0(i64 24, ptr %4) #13
  %27 = load i64, ptr %2, align 8
  ret i64 %27
}