; Function Attrs: nounwind uwtable
define dso_local i64 @text_to_array(ptr noundef captures(none) %0) local_unnamed_addr #0 {
  %2 = alloca %struct.SplitTextOutputData, align 8
  call void @llvm.lifetime.start.p0(i64 24, ptr nonnull %2) #19
  call void @llvm.memset.p0.i64(ptr noundef nonnull align 8 dereferenceable(24) %2, i8 0, i64 24, i1 false)
  %3 = call fastcc zeroext i1 @split_text(ptr noundef %0, ptr noundef %2)
  br i1 %3, label %6, label %4

4:                                                ; preds = %1
  %5 = getelementptr inbounds nuw i8, ptr %0, i64 28
  store i8 1, ptr %5, align 4
  br label %15

6:                                                ; preds = %1
  %7 = load ptr, ptr %2, align 8
  %8 = icmp eq ptr %7, null
  br i1 %8, label %9, label %12

9:                                                ; preds = %6
  %10 = tail call ptr @construct_empty_array(i32 noundef 25) #19
  %11 = ptrtoint ptr %10 to i64
  br label %15

12:                                               ; preds = %6
  %13 = load ptr, ptr @CurrentMemoryContext, align 8
  %14 = tail call i64 @makeArrayResult(ptr noundef nonnull %7, ptr noundef %13) #19
  br label %15

15:                                               ; preds = %12, %9, %4
  %.0 = phi i64 [ %11, %9 ], [ %14, %12 ], [ 0, %4 ]
  call void @llvm.lifetime.end.p0(i64 24, ptr nonnull %2) #19
  ret i64 %.0
}